TN:
SF:/home/s1ayer/lab1.2/array.cpp
FNL:0,16,28
FNA:0,42,_Z15array_push_backP5ArrayRKNSt7__cxx1112basic_stringIcSt11char_traitsIcESaIcEEE
FNL:1,31,51
FNA:1,6,_Z12array_insertP5ArrayiRKNSt7__cxx1112basic_stringIcSt11char_traitsIcESaIcEEE
FNL:2,54,58
FNA:2,21,_Z9array_getB5cxx11PK5Arrayi
FNL:3,6,13
FNA:3,42,_Z12create_arrayRKNSt7__cxx1112basic_stringIcSt11char_traitsIcESaIcEEE
FNL:4,61,65
FNA:4,9,_Z9array_setP5ArrayiRKNSt7__cxx1112basic_stringIcSt11char_traitsIcESaIcEEE
FNL:5,68,74
FNA:5,6,_Z12array_deleteP5Arrayi
FNL:6,77,80
FNA:6,9,_Z12array_lengthPK5Array
FNL:7,83,91
FNA:7,9,_Z10array_readB5cxx11PK5Array
FNL:8,94,98
FNA:8,45,_Z13destroy_arrayP5Array
FNF:9
FNH:9
DA:6,42
DA:7,42
DA:8,42
DA:9,42
DA:10,462
DA:11,42
DA:12,42
DA:16,42
DA:17,42
DA:18,42
DA:19,0
DA:20,0
DA:21,0
DA:22,0
DA:23,0
DA:24,0
DA:25,0
DA:27,42
DA:28,42
DA:31,6
DA:32,6
DA:33,6
DA:34,3
DA:35,0
DA:36,0
DA:38,3
DA:39,0
DA:40,0
DA:41,0
DA:42,0
DA:43,0
DA:44,0
DA:45,0
DA:47,6
DA:48,3
DA:49,3
DA:50,3
DA:54,21
DA:55,21
DA:56,18
DA:57,15
DA:61,9
DA:62,9
DA:63,6
DA:64,3
DA:65,3
DA:68,6
DA:69,6
DA:70,6
DA:71,6
DA:72,3
DA:73,3
DA:74,3
DA:77,9
DA:78,9
DA:79,9
DA:83,9
DA:84,9
DA:85,9
DA:86,27
DA:87,18
DA:88,18
DA:90,9
DA:91,9
DA:94,45
DA:95,45
DA:96,462
DA:97,42
LF:68
LH:52
end_of_record
TN:
SF:/home/s1ayer/lab1.2/dlist.cpp
FNL:0,106,127
FNA:0,3,_Z18dlist_delete_afterP11Doubly_ListRKNSt7__cxx1112basic_stringIcSt11char_traitsIcESaIcEEE
FNL:1,129,136
FNA:1,6,_Z17dlist_delete_headP11Doubly_List
FNL:2,13,20
FNA:2,15,_Z15dlist_push_headP11Doubly_ListRKNSt7__cxx1112basic_stringIcSt11char_traitsIcESaIcEEE
FNL:3,138,145
FNA:3,6,_Z17dlist_delete_tailP11Doubly_List
FNL:4,147,173
FNA:4,6,_Z18dlist_delete_valueP11Doubly_ListRKNSt7__cxx1112basic_stringIcSt11char_traitsIcESaIcEEE
FNL:5,175,182
FNA:5,3027,_Z10dlist_findPK11Doubly_ListRKNSt7__cxx1112basic_stringIcSt11char_traitsIcESaIcEEE
FNL:6,184,193
FNA:6,18,_Z10dlist_readB5cxx11PK11Doubly_List
FNL:7,195,203
FNA:7,27,_Z19destroy_doubly_listP11Doubly_List
FNL:8,22,32
FNA:8,3030,_Z15dlist_push_tailP11Doubly_ListRKNSt7__cxx1112basic_stringIcSt11char_traitsIcESaIcEEE
FNL:9,33,56
FNA:9,3,_Z19dlist_insert_beforeP11Doubly_ListRKNSt7__cxx1112basic_stringIcSt11char_traitsIcESaIcEEES8_
FNL:10,59,79
FNA:10,3,_Z18dlist_insert_afterP11Doubly_ListRKNSt7__cxx1112basic_stringIcSt11char_traitsIcESaIcEEES8_
FNL:11,6,11
FNA:11,27,_Z18create_doubly_listRKNSt7__cxx1112basic_stringIcSt11char_traitsIcESaIcEEE
FNL:12,82,103
FNA:12,3,_Z19dlist_delete_beforeP11Doubly_ListRKNSt7__cxx1112basic_stringIcSt11char_traitsIcESaIcEEE
FNF:13
FNH:13
DA:6,27
DA:7,27
DA:8,27
DA:9,27
DA:10,27
DA:13,15
DA:14,15
DA:15,15
DA:16,0
DA:18,15
DA:19,15
DA:20,15
DA:22,3030
DA:23,3030
DA:25,3030
DA:26,3021
DA:29,9
DA:31,3030
DA:32,3030
DA:33,3
DA:34,3
DA:37,6
DA:38,3
DA:41,3
DA:42,0
DA:43,0
DA:47,3
DA:50,3
DA:51,3
DA:53,0
DA:55,3
DA:59,3
DA:60,3
DA:62,3
DA:63,3
DA:64,0
DA:67,3
DA:70,3
DA:73,3
DA:74,0
DA:76,3
DA:78,3
DA:82,3
DA:83,3
DA:85,3
DA:86,9
DA:87,6
DA:90,3
DA:92,3
DA:95,3
DA:96,3
DA:98,0
DA:100,3
DA:102,3
DA:106,3
DA:107,3
DA:109,3
DA:110,3
DA:111,0
DA:114,3
DA:116,3
DA:119,3
DA:120,0
DA:122,3
DA:124,3
DA:126,3
DA:129,6
DA:130,6
DA:131,3
DA:132,3
DA:133,3
DA:134,0
DA:135,3
DA:138,6
DA:139,6
DA:140,3
DA:141,3
DA:142,3
DA:143,0
DA:144,3
DA:147,6
DA:148,6
DA:150,6
DA:151,3
DA:153,3
DA:154,0
DA:156,3
DA:159,3
DA:160,0
DA:162,3
DA:165,3
DA:166,3
DA:167,3
DA:168,3
DA:170,0
DA:175,3027
DA:176,3027
DA:177,1501548
DA:178,1501530
DA:179,1498521
DA:181,18
DA:184,18
DA:185,18
DA:186,18
DA:187,51
DA:188,33
DA:189,33
DA:190,33
DA:192,18
DA:193,0
DA:195,27
DA:196,27
DA:197,3063
DA:198,3036
DA:199,3036
DA:200,3036
DA:202,27
DA:203,27
LF:118
LH:103
end_of_record
TN:
SF:/home/s1ayer/lab1.2/full_binary_tree.cpp
FNL:0,15,20
FNA:0,54318,_Z9find_nodeP8TreeNodeRKNSt7__cxx1112basic_stringIcSt11char_traitsIcESaIcEEE
FNL:1,22,28
FNA:1,57,_Z12is_full_nodeP8TreeNode
FNL:2,30,35
FNA:2,36,_Z11tree_heightP8TreeNode
FNL:3,37,46
FNA:3,24,_Z11print_levelP8TreeNodeiRNSt7__cxx1112basic_stringIcSt11char_traitsIcESaIcEEE
FNL:4,4,13
FNA:4,108597,_Z8add_nodeP8TreeNodeRKNSt7__cxx1112basic_stringIcSt11char_traitsIcESaIcEEE
FNL:5,49,54
FNA:5,45,_Z11create_treeRKNSt7__cxx1112basic_stringIcSt11char_traitsIcESaIcEEE
FNL:6,56,58
FNA:6,6069,_Z11tree_insertP4TreeRKNSt7__cxx1112basic_stringIcSt11char_traitsIcESaIcEEE
FNL:7,60,62
FNA:7,3039,_Z9tree_findPK4TreeRKNSt7__cxx1112basic_stringIcSt11char_traitsIcESaIcEEE
FNL:8,64,66
FNA:8,15,_Z12tree_is_fullPK4Tree
FNL:9,68,77
FNA:9,9,_Z9tree_readB5cxx11PK4Tree
FNL:10,79,85
FNA:10,12183,_Z18destroy_tree_nodesP8TreeNode
FNL:11,87,90
FNA:11,45,_Z12destroy_treeP4Tree
FNF:12
FNH:12
DA:4,108597
DA:5,108597
DA:7,102528
DA:8,10167
DA:9,92361
DA:10,92361
DA:12,102528
DA:15,54318
DA:16,54318
DA:17,54309
DA:18,51279
DA:19,46182
DA:22,57
DA:23,57
DA:24,24
DA:25,24
DA:26,3
DA:27,21
DA:30,36
DA:31,36
DA:32,15
DA:33,15
DA:34,15
DA:37,24
DA:38,24
DA:39,21
DA:40,15
DA:41,15
DA:43,6
DA:44,6
DA:49,45
DA:50,45
DA:51,45
DA:52,45
DA:53,45
DA:56,6069
DA:57,6069
DA:58,6069
DA:60,3039
DA:61,3039
DA:64,15
DA:65,15
DA:68,9
DA:69,15
DA:71,6
DA:72,6
DA:73,18
DA:74,12
DA:76,6
DA:77,6
DA:79,12183
DA:80,12183
DA:81,6069
DA:82,6069
DA:83,6069
DA:85,12183
DA:87,45
DA:88,45
DA:89,45
DA:90,45
LF:60
LH:60
end_of_record
TN:
SF:/home/s1ayer/lab1.2/hash_simple.cpp
FNL:0,108,122
FNA:0,3,_Z17simpleHashGetKeysP15SimpleHashTablePNSt7__cxx1112basic_stringIcSt11char_traitsIcESaIcEEERi
FNL:1,14,25
FNA:1,21,_Z21createSimpleHashTablei
FNL:2,27,41
FNA:2,21,_Z22destroySimpleHashTableP15SimpleHashTable
FNL:3,43,65
FNA:3,3030,_Z16simpleHashInsertP15SimpleHashTableRKNSt7__cxx1112basic_stringIcSt11char_traitsIcESaIcEEEi
FNL:4,6,12
FNA:4,3057,_Z10simpleHashRKNSt7__cxx1112basic_stringIcSt11char_traitsIcESaIcEEEi
FNL:5,67,90
FNA:5,12,_Z16simpleHashDeleteP15SimpleHashTableRKNSt7__cxx1112basic_stringIcSt11char_traitsIcESaIcEEE
FNL:6,92,106
FNA:6,24,_Z16simpleHashSearchP15SimpleHashTableRKNSt7__cxx1112basic_stringIcSt11char_traitsIcESaIcEEE
FNF:7
FNH:7
DA:6,3057
DA:7,3057
DA:8,20910
DA:9,17853
DA:11,3057
DA:14,21
DA:15,21
DA:16,21
DA:17,21
DA:18,21
DA:20,2142
DA:21,2121
DA:24,21
DA:27,21
DA:28,21
DA:30,2142
DA:31,2121
DA:32,5139
DA:33,3018
DA:34,3018
DA:35,3018
DA:39,21
DA:40,21
DA:43,3030
DA:44,3030
DA:46,3027
DA:47,3027
DA:49,16923
DA:50,13899
DA:51,3
DA:52,3
DA:54,13896
DA:57,3024
DA:58,3024
DA:59,3024
DA:60,3024
DA:61,3024
DA:62,3024
DA:64,3024
DA:67,12
DA:68,12
DA:70,9
DA:71,9
DA:72,9
DA:74,9
DA:75,6
DA:76,6
DA:77,6
DA:79,0
DA:81,6
DA:82,6
DA:83,6
DA:85,0
DA:86,0
DA:89,3
DA:92,24
DA:93,24
DA:95,21
DA:96,21
DA:98,21
DA:99,12
DA:100,12
DA:102,0
DA:105,9
DA:108,3
DA:109,3
DA:110,0
DA:111,0
DA:114,3
DA:115,306
DA:116,303
DA:117,312
DA:118,9
DA:119,9
LF:74
LH:68
end_of_record
TN:
SF:/home/s1ayer/lab1.2/queue.cpp
FNL:0,12,17
FNA:0,3027,_Z10queue_pushP5QueueRKNSt7__cxx1112basic_stringIcSt11char_traitsIcESaIcEEE
FNL:1,19,27
FNA:1,3039,_Z9queue_popB5cxx11P5Queue
FNL:2,29,32
FNA:2,0,_Z10queue_peekB5cxx11PK5Queue
FNL:3,34,43
FNA:3,9,_Z10queue_readB5cxx11PK5Queue
FNL:4,45,47
FNA:4,0,_Z11queue_emptyPK5Queue
FNL:5,49,54
FNA:5,18,_Z13destroy_queueP5Queue
FNL:6,5,10
FNA:6,18,_Z12create_queueRKNSt7__cxx1112basic_stringIcSt11char_traitsIcESaIcEEE
FNF:7
FNH:5
DA:5,18
DA:6,18
DA:7,18
DA:8,18
DA:9,18
DA:12,3027
DA:13,3027
DA:14,3027
DA:15,18
DA:16,3027
DA:17,3027
DA:19,3039
DA:20,3039
DA:21,3027
DA:22,3027
DA:23,3027
DA:24,3027
DA:25,3027
DA:26,3027
DA:29,0
DA:30,0
DA:31,0
DA:34,9
DA:35,9
DA:36,9
DA:37,27
DA:38,18
DA:39,18
DA:40,18
DA:42,9
DA:43,0
DA:45,0
DA:46,0
DA:49,18
DA:50,36
DA:51,18
DA:53,18
DA:54,18
LF:38
LH:32
end_of_record
TN:
SF:/home/s1ayer/lab1.2/slist.cpp
FNL:0,108,130
FNA:0,15,_Z18flist_delete_afterP12Forward_ListRKNSt7__cxx1112basic_stringIcSt11char_traitsIcESaIcEEE
FNL:1,133,140
FNA:1,12,_Z17flist_delete_headP12Forward_List
FNL:2,14,19
FNA:2,21,_Z15flist_push_headP12Forward_ListRKNSt7__cxx1112basic_stringIcSt11char_traitsIcESaIcEEE
FNL:3,143,158
FNA:3,9,_Z17flist_delete_tailP12Forward_List
FNL:4,161,180
FNA:4,9,_Z18flist_delete_valueP12Forward_ListRKNSt7__cxx1112basic_stringIcSt11char_traitsIcESaIcEEE
FNL:5,183,191
FNA:5,3030,_Z10flist_findPK12Forward_ListRKNSt7__cxx1112basic_stringIcSt11char_traitsIcESaIcEEE
FNL:6,194,204
FNA:6,18,_Z10flist_readB5cxx11PK12Forward_List
FNL:7,207,216
FNA:7,36,_Z20destroy_forward_listP12Forward_List
FNL:8,22,28
FNA:8,3036,_Z15flist_push_tailP12Forward_ListRKNSt7__cxx1112basic_stringIcSt11char_traitsIcESaIcEEE
FNL:9,31,54
FNA:9,12,_Z19flist_insert_beforeP12Forward_ListRKNSt7__cxx1112basic_stringIcSt11char_traitsIcESaIcEEES8_
FNL:10,57,78
FNA:10,12,_Z18flist_insert_afterP12Forward_ListRKNSt7__cxx1112basic_stringIcSt11char_traitsIcESaIcEEES8_
FNL:11,6,11
FNA:11,33,_Z19create_forward_listRKNSt7__cxx1112basic_stringIcSt11char_traitsIcESaIcEEE
FNL:12,81,105
FNA:12,15,_Z19flist_delete_beforeP12Forward_ListRKNSt7__cxx1112basic_stringIcSt11char_traitsIcESaIcEEE
FNF:13
FNH:13
DA:6,33
DA:7,33
DA:8,33
DA:9,33
DA:10,33
DA:14,21
DA:15,21
DA:16,18
DA:17,18
DA:18,18
DA:19,18
DA:22,3036
DA:23,3036
DA:24,3033
DA:25,3033
DA:26,9
DA:27,3033
DA:28,3033
DA:31,12
DA:32,12
DA:33,12
DA:36,6
DA:37,0
DA:38,0
DA:42,6
DA:43,9
DA:44,3
DA:48,6
DA:49,3
DA:50,3
DA:52,3
DA:57,12
DA:58,12
DA:59,12
DA:62,18
DA:63,6
DA:67,12
DA:68,3
DA:69,3
DA:72,3
DA:73,3
DA:76,9
DA:78,3
DA:81,15
DA:82,15
DA:83,15
DA:86,9
DA:87,0
DA:88,0
DA:92,9
DA:93,9
DA:94,0
DA:98,9
DA:99,3
DA:100,3
DA:101,3
DA:103,6
DA:108,15
DA:109,15
DA:110,15
DA:113,24
DA:114,9
DA:118,15
DA:119,3
DA:120,3
DA:123,3
DA:124,3
DA:126,3
DA:127,3
DA:128,12
DA:130,3
DA:133,12
DA:134,12
DA:135,12
DA:136,6
DA:137,6
DA:138,6
DA:139,6
DA:140,6
DA:143,9
DA:144,9
DA:145,9
DA:146,3
DA:147,0
DA:148,0
DA:149,0
DA:151,3
DA:152,3
DA:153,0
DA:155,3
DA:156,3
DA:157,3
DA:161,9
DA:162,9
DA:163,9
DA:164,3
DA:165,3
DA:166,3
DA:168,0
DA:169,0
DA:170,0
DA:172,0
DA:173,0
DA:174,0
DA:175,0
DA:176,0
DA:178,0
DA:183,3030
DA:184,3030
DA:185,3030
DA:186,1501551
DA:187,1501530
DA:188,1498521
DA:190,21
DA:194,18
DA:195,18
DA:196,18
DA:197,18
DA:198,51
DA:199,33
DA:200,33
DA:201,33
DA:203,18
DA:204,18
DA:207,36
DA:208,36
DA:209,33
DA:210,3075
DA:211,3042
DA:212,3042
DA:213,3042
DA:215,33
LF:132
LH:114
end_of_record
TN:
SF:/home/s1ayer/lab1.2/stack.cpp
FNL:0,12,18
FNA:0,3033,_Z10stack_pushP5StackRKNSt7__cxx1112basic_stringIcSt11char_traitsIcESaIcEEE
FNL:1,20,28
FNA:1,3042,_Z9stack_popB5cxx11P5Stack
FNL:2,30,34
FNA:2,15,_Z10stack_peekB5cxx11PK5Stack
FNL:3,36,46
FNA:3,9,_Z10stack_readB5cxx11PK5Stack
FNL:4,48,54
FNA:4,27,_Z13destroy_stackP5Stack
FNL:5,5,10
FNA:5,24,_Z12create_stackRKNSt7__cxx1112basic_stringIcSt11char_traitsIcESaIcEEE
FNF:6
FNH:6
DA:5,24
DA:6,24
DA:7,24
DA:8,24
DA:9,24
DA:12,3033
DA:13,3033
DA:14,3
DA:16,3030
DA:17,3030
DA:18,3030
DA:20,3042
DA:21,3042
DA:22,3036
DA:23,3030
DA:24,3030
DA:25,3030
DA:26,3030
DA:27,3030
DA:30,15
DA:31,15
DA:32,9
DA:33,6
DA:36,9
DA:37,9
DA:38,9
DA:39,9
DA:40,27
DA:41,18
DA:42,18
DA:43,18
DA:45,9
DA:46,9
DA:48,27
DA:49,27
DA:50,45
DA:51,21
DA:53,24
LF:38
LH:38
end_of_record
TN:
SF:/home/s1ayer/lab1.2/storage.cpp
FNL:0,149,173
FNA:0,0,_Z15cleanup_storagev
FNL:1,17,24
FNA:1,27,_Z10find_entryRKNSt7__cxx1112basic_stringIcSt11char_traitsIcESaIcEEE
FNL:2,27,64
FNA:2,9,_Z12save_to_fileRKNSt7__cxx1112basic_stringIcSt11char_traitsIcESaIcEEE
FNL:3,67,146
FNA:3,9,_Z14load_from_fileRKNSt7__cxx1112basic_stringIcSt11char_traitsIcESaIcEEE
FNF:4
FNH:3
DA:17,27
DA:18,75
DA:19,69
DA:20,21
DA:23,6
DA:27,9
DA:28,9
DA:29,9
DA:30,3
DA:31,3
DA:34,24
DA:35,18
DA:37,18
DA:38,3
DA:39,3
DA:41,15
DA:42,3
DA:43,3
DA:45,12
DA:46,3
DA:47,3
DA:49,9
DA:50,3
DA:51,3
DA:53,6
DA:54,3
DA:55,3
DA:57,3
DA:58,3
DA:59,3
DA:63,6
DA:64,9
DA:67,9
DA:68,9
DA:69,9
DA:70,3
DA:71,3
DA:74,6
DA:75,33
DA:76,27
DA:77,27
DA:79,27
DA:80,3
DA:83,24
DA:84,3
DA:85,3
DA:86,9
DA:87,6
DA:89,3
DA:90,3
DA:91,21
DA:92,3
DA:93,3
DA:94,9
DA:95,6
DA:97,3
DA:98,3
DA:99,18
DA:100,3
DA:101,3
DA:102,9
DA:103,6
DA:105,3
DA:106,3
DA:107,15
DA:108,3
DA:109,3
DA:110,603
DA:111,3
DA:114,9
DA:115,6
DA:116,6
DA:121,9
DA:122,6
DA:125,6
DA:126,306
DA:127,12
DA:128,3
DA:129,3
DA:130,9
DA:131,6
DA:133,3
DA:134,3
DA:135,9
DA:136,3
DA:137,3
DA:138,9
DA:139,6
DA:141,3
DA:142,3
DA:143,33
DA:145,6
DA:146,27
DA:149,0
DA:150,0
DA:151,0
DA:153,0
DA:154,0
DA:156,0
DA:157,0
DA:159,0
DA:160,0
DA:162,0
DA:163,0
DA:165,0
DA:166,0
DA:168,0
DA:169,0
DA:172,0
DA:173,0
LF:110
LH:93
end_of_record
