TN:
SF:/home/s1ayer/lab1.2/array.cpp
FNL:0,13,25
FNA:0,0,_Z15array_push_backP5ArrayRKNSt7__cxx1112basic_stringIcSt11char_traitsIcESaIcEEE
FNL:1,27,34
FNA:1,0,_Z12array_insertP5ArrayiRKNSt7__cxx1112basic_stringIcSt11char_traitsIcESaIcEEE
FNL:2,36,39
FNA:2,0,_Z9array_getB5cxx11PK5Arrayi
FNL:3,4,11
FNA:3,0,_Z12create_arrayRKNSt7__cxx1112basic_stringIcSt11char_traitsIcESaIcEEE
FNL:4,41,44
FNA:4,0,_Z9array_setP5ArrayiRKNSt7__cxx1112basic_stringIcSt11char_traitsIcESaIcEEE
FNL:5,46,52
FNA:5,0,_Z12array_deleteP5Arrayi
FNL:6,54,56
FNA:6,0,_Z12array_lengthPK5Array
FNL:7,58,65
FNA:7,0,_Z10array_readB5cxx11PK5Array
FNL:8,67,70
FNA:8,0,_Z13destroy_arrayP5Array
FNF:9
FNH:0
DA:4,0
DA:5,0
DA:6,0
DA:7,0
DA:8,0
DA:9,0
DA:10,0
DA:13,0
DA:14,0
DA:15,0
DA:16,0
DA:17,0
DA:18,0
DA:20,0
DA:21,0
DA:22,0
DA:24,0
DA:25,0
DA:27,0
DA:28,0
DA:29,0
DA:30,0
DA:31,0
DA:33,0
DA:34,0
DA:36,0
DA:37,0
DA:38,0
DA:41,0
DA:42,0
DA:43,0
DA:44,0
DA:46,0
DA:47,0
DA:48,0
DA:49,0
DA:51,0
DA:52,0
DA:54,0
DA:55,0
DA:58,0
DA:59,0
DA:60,0
DA:61,0
DA:62,0
DA:64,0
DA:65,0
DA:67,0
DA:68,0
DA:69,0
DA:70,0
LF:51
LH:0
end_of_record
TN:
SF:/home/s1ayer/lab1.2/dlist.cpp
FNL:0,106,127
FNA:0,0,_Z18dlist_delete_afterP11Doubly_ListRKNSt7__cxx1112basic_stringIcSt11char_traitsIcESaIcEEE
FNL:1,129,136
FNA:1,0,_Z17dlist_delete_headP11Doubly_List
FNL:2,13,20
FNA:2,0,_Z15dlist_push_headP11Doubly_ListRKNSt7__cxx1112basic_stringIcSt11char_traitsIcESaIcEEE
FNL:3,138,145
FNA:3,0,_Z17dlist_delete_tailP11Doubly_List
FNL:4,147,173
FNA:4,0,_Z18dlist_delete_valueP11Doubly_ListRKNSt7__cxx1112basic_stringIcSt11char_traitsIcESaIcEEE
FNL:5,175,182
FNA:5,0,_Z10dlist_findPK11Doubly_ListRKNSt7__cxx1112basic_stringIcSt11char_traitsIcESaIcEEE
FNL:6,184,193
FNA:6,0,_Z10dlist_readB5cxx11PK11Doubly_List
FNL:7,195,203
FNA:7,0,_Z19destroy_doubly_listP11Doubly_List
FNL:8,22,32
FNA:8,0,_Z15dlist_push_tailP11Doubly_ListRKNSt7__cxx1112basic_stringIcSt11char_traitsIcESaIcEEE
FNL:9,33,56
FNA:9,0,_Z19dlist_insert_beforeP11Doubly_ListRKNSt7__cxx1112basic_stringIcSt11char_traitsIcESaIcEEES8_
FNL:10,59,79
FNA:10,0,_Z18dlist_insert_afterP11Doubly_ListRKNSt7__cxx1112basic_stringIcSt11char_traitsIcESaIcEEES8_
FNL:11,6,11
FNA:11,0,_Z18create_doubly_listRKNSt7__cxx1112basic_stringIcSt11char_traitsIcESaIcEEE
FNL:12,82,103
FNA:12,0,_Z19dlist_delete_beforeP11Doubly_ListRKNSt7__cxx1112basic_stringIcSt11char_traitsIcESaIcEEE
FNF:13
FNH:0
DA:6,0
DA:7,0
DA:8,0
DA:9,0
DA:10,0
DA:13,0
DA:14,0
DA:15,0
DA:16,0
DA:18,0
DA:19,0
DA:20,0
DA:22,0
DA:23,0
DA:25,0
DA:26,0
DA:29,0
DA:31,0
DA:32,0
DA:33,0
DA:34,0
DA:37,0
DA:38,0
DA:41,0
DA:42,0
DA:43,0
DA:47,0
DA:50,0
DA:51,0
DA:53,0
DA:55,0
DA:59,0
DA:60,0
DA:62,0
DA:63,0
DA:64,0
DA:67,0
DA:70,0
DA:73,0
DA:74,0
DA:76,0
DA:78,0
DA:82,0
DA:83,0
DA:85,0
DA:86,0
DA:87,0
DA:90,0
DA:92,0
DA:95,0
DA:96,0
DA:98,0
DA:100,0
DA:102,0
DA:106,0
DA:107,0
DA:109,0
DA:110,0
DA:111,0
DA:114,0
DA:116,0
DA:119,0
DA:120,0
DA:122,0
DA:124,0
DA:126,0
DA:129,0
DA:130,0
DA:131,0
DA:132,0
DA:133,0
DA:134,0
DA:135,0
DA:138,0
DA:139,0
DA:140,0
DA:141,0
DA:142,0
DA:143,0
DA:144,0
DA:147,0
DA:148,0
DA:150,0
DA:151,0
DA:153,0
DA:154,0
DA:156,0
DA:159,0
DA:160,0
DA:162,0
DA:165,0
DA:166,0
DA:167,0
DA:168,0
DA:170,0
DA:175,0
DA:176,0
DA:177,0
DA:178,0
DA:179,0
DA:181,0
DA:184,0
DA:185,0
DA:186,0
DA:187,0
DA:188,0
DA:189,0
DA:190,0
DA:192,0
DA:193,0
DA:195,0
DA:196,0
DA:197,0
DA:198,0
DA:199,0
DA:200,0
DA:202,0
DA:203,0
LF:118
LH:0
end_of_record
TN:
SF:/home/s1ayer/lab1.2/full_binary_tree.cpp
FNL:0,15,20
FNA:0,18103,_Z9find_nodeP8TreeNodeRKNSt7__cxx1112basic_stringIcSt11char_traitsIcESaIcEEE
FNL:1,22,28
FNA:1,19,_Z12is_full_nodeP8TreeNode
FNL:2,30,35
FNA:2,7,_Z11tree_heightP8TreeNode
FNL:3,37,46
FNA:3,4,_Z11print_levelP8TreeNodeiRNSt7__cxx1112basic_stringIcSt11char_traitsIcESaIcEEE
FNL:4,4,13
FNA:4,36193,_Z8add_nodeP8TreeNodeRKNSt7__cxx1112basic_stringIcSt11char_traitsIcESaIcEEE
FNL:5,49,54
FNA:5,13,_Z11create_treeRKNSt7__cxx1112basic_stringIcSt11char_traitsIcESaIcEEE
FNL:6,56,58
FNA:6,2019,_Z11tree_insertP4TreeRKNSt7__cxx1112basic_stringIcSt11char_traitsIcESaIcEEE
FNL:7,60,62
FNA:7,1011,_Z9tree_findPK4TreeRKNSt7__cxx1112basic_stringIcSt11char_traitsIcESaIcEEE
FNL:8,64,66
FNA:8,5,_Z12tree_is_fullPK4Tree
FNL:9,68,77
FNA:9,2,_Z9tree_readB5cxx11PK4Tree
FNL:10,79,85
FNA:10,4051,_Z18destroy_tree_nodesP8TreeNode
FNL:11,87,90
FNA:11,13,_Z12destroy_treeP4Tree
FNF:12
FNH:12
DA:4,36193
DA:5,36193
DA:7,34174
DA:8,3389
DA:9,30785
DA:10,30785
DA:12,34174
DA:15,18103
DA:16,18103
DA:17,18100
DA:18,17092
DA:19,15393
DA:22,19
DA:23,19
DA:24,8
DA:25,8
DA:26,1
DA:27,7
DA:30,7
DA:31,7
DA:32,3
DA:33,3
DA:34,3
DA:37,4
DA:38,4
DA:39,4
DA:40,3
DA:41,3
DA:43,1
DA:44,1
DA:49,13
DA:50,13
DA:51,13
DA:52,13
DA:53,13
DA:56,2019
DA:57,2019
DA:58,2019
DA:60,1011
DA:61,1011
DA:64,5
DA:65,5
DA:68,2
DA:69,4
DA:71,1
DA:72,1
DA:73,3
DA:74,2
DA:76,1
DA:77,1
DA:79,4051
DA:80,4051
DA:81,2019
DA:82,2019
DA:83,2019
DA:85,4051
DA:87,13
DA:88,13
DA:89,13
DA:90,13
LF:60
LH:60
end_of_record
TN:
SF:/home/s1ayer/lab1.2/queue.cpp
FNL:0,12,17
FNA:0,0,_Z10queue_pushP5QueueRKNSt7__cxx1112basic_stringIcSt11char_traitsIcESaIcEEE
FNL:1,19,27
FNA:1,0,_Z9queue_popB5cxx11P5Queue
FNL:2,29,32
FNA:2,0,_Z10queue_peekB5cxx11PK5Queue
FNL:3,34,43
FNA:3,0,_Z10queue_readB5cxx11PK5Queue
FNL:4,45,47
FNA:4,0,_Z11queue_emptyPK5Queue
FNL:5,49,54
FNA:5,0,_Z13destroy_queueP5Queue
FNL:6,5,10
FNA:6,0,_Z12create_queueRKNSt7__cxx1112basic_stringIcSt11char_traitsIcESaIcEEE
FNF:7
FNH:0
DA:5,0
DA:6,0
DA:7,0
DA:8,0
DA:9,0
DA:12,0
DA:13,0
DA:14,0
DA:15,0
DA:16,0
DA:17,0
DA:19,0
DA:20,0
DA:21,0
DA:22,0
DA:23,0
DA:24,0
DA:25,0
DA:26,0
DA:29,0
DA:30,0
DA:31,0
DA:34,0
DA:35,0
DA:36,0
DA:37,0
DA:38,0
DA:39,0
DA:40,0
DA:42,0
DA:43,0
DA:45,0
DA:46,0
DA:49,0
DA:50,0
DA:51,0
DA:53,0
DA:54,0
LF:38
LH:0
end_of_record
TN:
SF:/home/s1ayer/lab1.2/slist.cpp
FNL:0,113,119
FNA:0,0,_Z17flist_delete_headP12Forward_List
FNL:1,12,16
FNA:1,0,_Z15flist_push_headP12Forward_ListRKNSt7__cxx1112basic_stringIcSt11char_traitsIcESaIcEEE
FNL:2,121,135
FNA:2,0,_Z17flist_delete_tailP12Forward_List
FNL:3,137,153
FNA:3,0,_Z18flist_delete_valueP12Forward_ListRKNSt7__cxx1112basic_stringIcSt11char_traitsIcESaIcEEE
FNL:4,155,162
FNA:4,0,_Z10flist_findPK12Forward_ListRKNSt7__cxx1112basic_stringIcSt11char_traitsIcESaIcEEE
FNL:5,164,173
FNA:5,0,_Z10flist_readB5cxx11PK12Forward_List
FNL:6,175,183
FNA:6,0,_Z20destroy_forward_listP12Forward_List
FNL:7,18,23
FNA:7,0,_Z15flist_push_tailP12Forward_ListRKNSt7__cxx1112basic_stringIcSt11char_traitsIcESaIcEEE
FNL:8,24,44
FNA:8,0,_Z19flist_insert_beforeP12Forward_ListRKNSt7__cxx1112basic_stringIcSt11char_traitsIcESaIcEEES8_
FNL:9,47,65
FNA:9,0,_Z18flist_insert_afterP12Forward_ListRKNSt7__cxx1112basic_stringIcSt11char_traitsIcESaIcEEES8_
FNL:10,5,10
FNA:10,0,_Z19create_forward_listRKNSt7__cxx1112basic_stringIcSt11char_traitsIcESaIcEEE
FNL:11,68,89
FNA:11,0,_Z19flist_delete_beforeP12Forward_ListRKNSt7__cxx1112basic_stringIcSt11char_traitsIcESaIcEEE
FNL:12,92,111
FNA:12,0,_Z18flist_delete_afterP12Forward_ListRKNSt7__cxx1112basic_stringIcSt11char_traitsIcESaIcEEE
FNF:13
FNH:0
DA:5,0
DA:6,0
DA:7,0
DA:8,0
DA:9,0
DA:12,0
DA:13,0
DA:14,0
DA:15,0
DA:16,0
DA:18,0
DA:19,0
DA:20,0
DA:21,0
DA:22,0
DA:23,0
DA:24,0
DA:25,0
DA:28,0
DA:29,0
DA:30,0
DA:34,0
DA:35,0
DA:36,0
DA:40,0
DA:41,0
DA:42,0
DA:47,0
DA:48,0
DA:51,0
DA:52,0
DA:56,0
DA:57,0
DA:58,0
DA:61,0
DA:62,0
DA:65,0
DA:68,0
DA:69,0
DA:72,0
DA:73,0
DA:74,0
DA:78,0
DA:79,0
DA:80,0
DA:84,0
DA:85,0
DA:86,0
DA:87,0
DA:92,0
DA:93,0
DA:96,0
DA:97,0
DA:101,0
DA:102,0
DA:103,0
DA:106,0
DA:107,0
DA:109,0
DA:111,0
DA:113,0
DA:114,0
DA:115,0
DA:116,0
DA:117,0
DA:118,0
DA:121,0
DA:122,0
DA:123,0
DA:124,0
DA:125,0
DA:126,0
DA:128,0
DA:129,0
DA:130,0
DA:132,0
DA:133,0
DA:134,0
DA:137,0
DA:138,0
DA:139,0
DA:140,0
DA:141,0
DA:143,0
DA:144,0
DA:145,0
DA:147,0
DA:148,0
DA:149,0
DA:150,0
DA:151,0
DA:155,0
DA:156,0
DA:157,0
DA:158,0
DA:159,0
DA:161,0
DA:164,0
DA:165,0
DA:166,0
DA:167,0
DA:168,0
DA:169,0
DA:170,0
DA:172,0
DA:173,0
DA:175,0
DA:176,0
DA:177,0
DA:178,0
DA:179,0
DA:180,0
DA:182,0
DA:183,0
LF:114
LH:0
end_of_record
TN:
SF:/home/s1ayer/lab1.2/stack.cpp
FNL:0,12,15
FNA:0,0,_Z10stack_pushP5StackRKNSt7__cxx1112basic_stringIcSt11char_traitsIcESaIcEEE
FNL:1,17,24
FNA:1,0,_Z9stack_popB5cxx11P5Stack
FNL:2,26,29
FNA:2,0,_Z10stack_peekB5cxx11PK5Stack
FNL:3,31,40
FNA:3,0,_Z10stack_readB5cxx11PK5Stack
FNL:4,42,47
FNA:4,0,_Z13destroy_stackP5Stack
FNL:5,5,10
FNA:5,0,_Z12create_stackRKNSt7__cxx1112basic_stringIcSt11char_traitsIcESaIcEEE
FNF:6
FNH:0
DA:5,0
DA:6,0
DA:7,0
DA:8,0
DA:9,0
DA:12,0
DA:13,0
DA:14,0
DA:15,0
DA:17,0
DA:18,0
DA:19,0
DA:20,0
DA:21,0
DA:22,0
DA:23,0
DA:26,0
DA:27,0
DA:28,0
DA:31,0
DA:32,0
DA:33,0
DA:34,0
DA:35,0
DA:36,0
DA:37,0
DA:39,0
DA:40,0
DA:42,0
DA:43,0
DA:44,0
DA:46,0
DA:47,0
LF:33
LH:0
end_of_record
TN:
SF:/home/s1ayer/lab1.2/storage.cpp
FNL:0,149,173
FNA:0,0,_Z15cleanup_storagev
FNL:1,17,24
FNA:1,0,_Z10find_entryRKNSt7__cxx1112basic_stringIcSt11char_traitsIcESaIcEEE
FNL:2,27,64
FNA:2,0,_Z12save_to_fileRKNSt7__cxx1112basic_stringIcSt11char_traitsIcESaIcEEE
FNL:3,67,146
FNA:3,0,_Z14load_from_fileRKNSt7__cxx1112basic_stringIcSt11char_traitsIcESaIcEEE
FNF:4
FNH:0
DA:17,0
DA:18,0
DA:19,0
DA:20,0
DA:23,0
DA:27,0
DA:28,0
DA:29,0
DA:30,0
DA:31,0
DA:34,0
DA:35,0
DA:37,0
DA:38,0
DA:39,0
DA:41,0
DA:42,0
DA:43,0
DA:45,0
DA:46,0
DA:47,0
DA:49,0
DA:50,0
DA:51,0
DA:53,0
DA:54,0
DA:55,0
DA:57,0
DA:58,0
DA:59,0
DA:63,0
DA:64,0
DA:67,0
DA:68,0
DA:69,0
DA:70,0
DA:71,0
DA:74,0
DA:75,0
DA:76,0
DA:77,0
DA:79,0
DA:80,0
DA:83,0
DA:84,0
DA:85,0
DA:86,0
DA:87,0
DA:89,0
DA:90,0
DA:91,0
DA:92,0
DA:93,0
DA:94,0
DA:95,0
DA:97,0
DA:98,0
DA:99,0
DA:100,0
DA:101,0
DA:102,0
DA:103,0
DA:105,0
DA:106,0
DA:107,0
DA:108,0
DA:109,0
DA:110,0
DA:111,0
DA:114,0
DA:115,0
DA:116,0
DA:121,0
DA:122,0
DA:125,0
DA:126,0
DA:127,0
DA:128,0
DA:129,0
DA:130,0
DA:131,0
DA:133,0
DA:134,0
DA:135,0
DA:136,0
DA:137,0
DA:138,0
DA:139,0
DA:141,0
DA:142,0
DA:143,0
DA:145,0
DA:146,0
DA:149,0
DA:150,0
DA:151,0
DA:153,0
DA:154,0
DA:156,0
DA:157,0
DA:159,0
DA:160,0
DA:162,0
DA:163,0
DA:165,0
DA:166,0
DA:168,0
DA:169,0
DA:172,0
DA:173,0
LF:110
LH:0
end_of_record
TN:
SF:/home/s1ayer/lab1.2/tests/test_full_binary_tree.cpp
FNL:0,105,108
FNA:0,1,_ZN37FullBinaryTreeTest_ReadEmptyTree_Test8TestBodyEv
FNA:0,1,_ZN37FullBinaryTreeTest_ReadEmptyTree_TestC2Ev
FNA:0,1,_ZN37FullBinaryTreeTest_ReadEmptyTree_TestD0Ev
FNA:0,1,_ZN37FullBinaryTreeTest_ReadEmptyTree_TestD2Ev
FNL:1,111,119
FNA:1,1,_ZN39FullBinaryTreeTest_BenchmarkInsert_Test8TestBodyEv
FNA:1,1,_ZN39FullBinaryTreeTest_BenchmarkInsert_TestC2Ev
FNA:1,1,_ZN39FullBinaryTreeTest_BenchmarkInsert_TestD0Ev
FNA:1,1,_ZN39FullBinaryTreeTest_BenchmarkInsert_TestD2Ev
FNL:2,122,134
FNA:2,1,_ZN37FullBinaryTreeTest_BenchmarkFind_Test8TestBodyEv
FNA:2,1,_ZN37FullBinaryTreeTest_BenchmarkFind_TestC2Ev
FNA:2,1,_ZN37FullBinaryTreeTest_BenchmarkFind_TestD0Ev
FNA:2,1,_ZN37FullBinaryTreeTest_BenchmarkFind_TestD2Ev
FNL:3,13,15
FNA:3,13,_ZN18FullBinaryTreeTest8TearDownEv
FNL:4,19,23
FNA:4,1,_ZN34FullBinaryTreeTest_CreateTree_Test8TestBodyEv
FNA:4,1,_ZN34FullBinaryTreeTest_CreateTree_TestC2Ev
FNA:4,1,_ZN34FullBinaryTreeTest_CreateTree_TestD0Ev
FNA:4,1,_ZN34FullBinaryTreeTest_CreateTree_TestD2Ev
FNL:5,26,31
FNA:5,1,_ZN43FullBinaryTreeTest_InsertSingleElement_Test8TestBodyEv
FNA:5,1,_ZN43FullBinaryTreeTest_InsertSingleElement_TestC2Ev
FNA:5,1,_ZN43FullBinaryTreeTest_InsertSingleElement_TestD0Ev
FNA:5,1,_ZN43FullBinaryTreeTest_InsertSingleElement_TestD2Ev
FNL:6,34,43
FNA:6,1,_ZN46FullBinaryTreeTest_InsertMultipleElements_Test8TestBodyEv
FNA:6,1,_ZN46FullBinaryTreeTest_InsertMultipleElements_TestC2Ev
FNA:6,1,_ZN46FullBinaryTreeTest_InsertMultipleElements_TestD0Ev
FNA:6,1,_ZN46FullBinaryTreeTest_InsertMultipleElements_TestD2Ev
FNL:7,46,58
FNA:7,1,_ZN44FullBinaryTreeTest_FindExistingElements_Test8TestBodyEv
FNA:7,1,_ZN44FullBinaryTreeTest_FindExistingElements_TestC2Ev
FNA:7,1,_ZN44FullBinaryTreeTest_FindExistingElements_TestD0Ev
FNA:7,1,_ZN44FullBinaryTreeTest_FindExistingElements_TestD2Ev
FNL:8,61,67
FNA:8,1,_ZN47FullBinaryTreeTest_FindNonExistingElements_Test8TestBodyEv
FNA:8,1,_ZN47FullBinaryTreeTest_FindNonExistingElements_TestC2Ev
FNA:8,1,_ZN47FullBinaryTreeTest_FindNonExistingElements_TestD0Ev
FNA:8,1,_ZN47FullBinaryTreeTest_FindNonExistingElements_TestD2Ev
FNL:9,70,72
FNA:9,1,_ZN39FullBinaryTreeTest_FindInEmptyTree_Test8TestBodyEv
FNA:9,1,_ZN39FullBinaryTreeTest_FindInEmptyTree_TestC2Ev
FNA:9,1,_ZN39FullBinaryTreeTest_FindInEmptyTree_TestD0Ev
FNA:9,1,_ZN39FullBinaryTreeTest_FindInEmptyTree_TestD2Ev
FNL:10,75,77
FNA:10,1,_ZN39FullBinaryTreeTest_IsFullEmptyTree_Test8TestBodyEv
FNA:10,1,_ZN39FullBinaryTreeTest_IsFullEmptyTree_TestC2Ev
FNA:10,1,_ZN39FullBinaryTreeTest_IsFullEmptyTree_TestD0Ev
FNA:10,1,_ZN39FullBinaryTreeTest_IsFullEmptyTree_TestD2Ev
FNL:11,80,85
FNA:11,1,_ZN43FullBinaryTreeTest_IsFullThreeElements_Test8TestBodyEv
FNA:11,1,_ZN43FullBinaryTreeTest_IsFullThreeElements_TestC2Ev
FNA:11,1,_ZN43FullBinaryTreeTest_IsFullThreeElements_TestD0Ev
FNA:11,1,_ZN43FullBinaryTreeTest_IsFullThreeElements_TestD2Ev
FNL:12,88,92
FNA:12,1,_ZN37FullBinaryTreeTest_IsNotFullTree_Test8TestBodyEv
FNA:12,1,_ZN37FullBinaryTreeTest_IsNotFullTree_TestC2Ev
FNA:12,1,_ZN37FullBinaryTreeTest_IsNotFullTree_TestD0Ev
FNA:12,1,_ZN37FullBinaryTreeTest_IsNotFullTree_TestD2Ev
FNL:13,9,11
FNA:13,13,_ZN18FullBinaryTreeTest5SetUpEv
FNL:14,95,102
FNA:14,1,_ZN32FullBinaryTreeTest_ReadTree_Test8TestBodyEv
FNA:14,1,_ZN32FullBinaryTreeTest_ReadTree_TestC2Ev
FNA:14,1,_ZN32FullBinaryTreeTest_ReadTree_TestD0Ev
FNA:14,1,_ZN32FullBinaryTreeTest_ReadTree_TestD2Ev
FNF:15
FNH:15
DA:9,13
DA:10,13
DA:11,13
DA:13,13
DA:14,13
DA:15,13
DA:19,4
DA:20,1
DA:21,1
DA:22,1
DA:26,4
DA:27,1
DA:28,1
DA:29,1
DA:30,1
DA:31,1
DA:34,4
DA:35,2
DA:36,2
DA:37,2
DA:39,2
DA:40,2
DA:41,2
DA:42,1
DA:43,1
DA:46,4
DA:47,2
DA:48,2
DA:49,2
DA:50,2
DA:51,2
DA:53,2
DA:54,2
DA:55,2
DA:56,2
DA:57,2
DA:58,1
DA:61,4
DA:62,2
DA:63,2
DA:65,2
DA:66,2
DA:67,1
DA:70,4
DA:71,2
DA:72,1
DA:75,4
DA:76,1
DA:77,1
DA:80,4
DA:81,2
DA:82,2
DA:83,1
DA:84,1
DA:85,1
DA:88,5
DA:89,2
DA:90,1
DA:91,1
DA:92,1
DA:95,4
DA:96,2
DA:97,2
DA:98,1
DA:100,1
DA:101,1
DA:102,1
DA:105,4
DA:106,1
DA:107,1
DA:108,1
DA:111,4
DA:112,1
DA:113,1001
DA:114,1000
DA:116,1
DA:117,1
DA:118,1
DA:119,1
DA:122,4
DA:123,1001
DA:124,1000
DA:127,1
DA:128,1001
DA:129,1000
DA:131,1
DA:132,1
DA:133,1
DA:134,1
LF:89
LH:89
end_of_record
